target datalayout = "e-m:e-p270:32:32-p271:32:32-p272:64:64-i64:64-i128:128-f80:128-n8:16:32:64-S128"
target triple = "x86_64-pc-linux-gnu"

@__const.ff_rdt_calc_response_and_checksum.buf = private unnamed_addr constant <{ [8 x i8], [56 x i8] }> <{ [8 x i8] c"\A1\E9\14\9D\0Ek;Y", [56 x i8] zeroinitializer }>, align 16
@ff_rdt_calc_response_and_checksum.xor_table = internal constant [37 x i8] c"\05\18t\D0\0D\09\02S\C0\01\05\05g\03\19p\08'f\10\10r\08\09c\11\03q\08\08p\02\10W\05\18T", align 16
@.str = private unnamed_addr constant [9 x i8] c"01d0a8e3\00", align 1

; Function Attrs: nounwind uwtable
define void @ff_rdt_calc_response_and_checksum(ptr noundef %0, ptr noundef %1, ptr noundef %2) #0 {
  %4 = alloca ptr, align 8
  %5 = alloca ptr, align 8
  %6 = alloca ptr, align 8
  %7 = alloca i32, align 4
  %8 = alloca i32, align 4
  %9 = alloca [16 x i8], align 16
  %10 = alloca [64 x i8], align 16
  store ptr %0, ptr %4, align 8, !tbaa !55
  store ptr %1, ptr %5, align 8, !tbaa !55
  store ptr %2, ptr %6, align 8, !tbaa !55
  call void @llvm.lifetime.start.p0(i64 4, ptr %7) #12
  %11 = load ptr, ptr %6, align 8, !tbaa !55
  %12 = call i64 @strlen(ptr noundef %11) #13
  %13 = trunc i64 %12 to i32
  store i32 %13, ptr %7, align 4, !tbaa !9
  call void @llvm.lifetime.start.p0(i64 4, ptr %8) #12
  call void @llvm.lifetime.start.p0(i64 16, ptr %9) #12
  call void @llvm.lifetime.start.p0(i64 64, ptr %10) #12
  call void @llvm.memcpy.p0.p0.i64(ptr align 16 %10, ptr align 16 @__const.ff_rdt_calc_response_and_checksum.buf, i64 64, i1 false)
  %14 = load i32, ptr %7, align 4, !tbaa !9
  %15 = icmp eq i32 %14, 40
  br i1 %15, label %16, label %17

16:                                               ; preds = %3
  store i32 32, ptr %7, align 4, !tbaa !9
  br label %22

17:                                               ; preds = %3
  %18 = load i32, ptr %7, align 4, !tbaa !9
  %19 = icmp sgt i32 %18, 56
  br i1 %19, label %20, label %21

20:                                               ; preds = %17
  store i32 56, ptr %7, align 4, !tbaa !9
  br label %21

21:                                               ; preds = %20, %17
  br label %22

22:                                               ; preds = %21, %16
  %23 = getelementptr inbounds [64 x i8], ptr %10, i64 0, i64 0
  %24 = getelementptr inbounds i8, ptr %23, i64 8
  %25 = load ptr, ptr %6, align 8, !tbaa !55
  %26 = load i32, ptr %7, align 4, !tbaa !9
  %27 = sext i32 %26 to i64
  call void @llvm.memcpy.p0.p0.i64(ptr align 1 %24, ptr align 1 %25, i64 %27, i1 false)
  store i32 0, ptr %8, align 4, !tbaa !9
  br label %28

28:                                               ; preds = %45, %22
  %29 = load i32, ptr %8, align 4, !tbaa !9
  %30 = icmp slt i32 %29, 37
  br i1 %30, label %31, label %48

31:                                               ; preds = %28
  %32 = load i32, ptr %8, align 4, !tbaa !9
  %33 = sext i32 %32 to i64
  %34 = getelementptr inbounds [37 x i8], ptr @ff_rdt_calc_response_and_checksum.xor_table, i64 0, i64 %33
  %35 = load i8, ptr %34, align 1, !tbaa !56
  %36 = zext i8 %35 to i32
  %37 = load i32, ptr %8, align 4, !tbaa !9
  %38 = add nsw i32 8, %37
  %39 = sext i32 %38 to i64
  %40 = getelementptr inbounds [64 x i8], ptr %10, i64 0, i64 %39
  %41 = load i8, ptr %40, align 1, !tbaa !56
  %42 = zext i8 %41 to i32
  %43 = xor i32 %42, %36
  %44 = trunc i32 %43 to i8
  store i8 %44, ptr %40, align 1, !tbaa !56
  br label %45

45:                                               ; preds = %31
  %46 = load i32, ptr %8, align 4, !tbaa !9
  %47 = add nsw i32 %46, 1
  store i32 %47, ptr %8, align 4, !tbaa !9
  br label %28, !llvm.loop !57

48:                                               ; preds = %28
  %49 = getelementptr inbounds [16 x i8], ptr %9, i64 0, i64 0
  %50 = getelementptr inbounds [64 x i8], ptr %10, i64 0, i64 0
  call void @av_md5_sum(ptr noundef %49, ptr noundef %50, i64 noundef 64)
  %51 = load ptr, ptr %4, align 8, !tbaa !55
  %52 = getelementptr inbounds [16 x i8], ptr %9, i64 0, i64 0
  %53 = call ptr @ff_data_to_hex(ptr noundef %51, ptr noundef %52, i32 noundef 16, i32 noundef 1)
  %54 = load ptr, ptr %4, align 8, !tbaa !55
  %55 = getelementptr inbounds i8, ptr %54, i64 32
  %56 = call ptr @strcpy(ptr noundef %55, ptr noundef @.str) #12
  store i32 0, ptr %8, align 4, !tbaa !9
  br label %57

57:                                               ; preds = %71, %48
  %58 = load i32, ptr %8, align 4, !tbaa !9
  %59 = icmp slt i32 %58, 8
  br i1 %59, label %60, label %74

60:                                               ; preds = %57
  %61 = load ptr, ptr %4, align 8, !tbaa !55
  %62 = load i32, ptr %8, align 4, !tbaa !9
  %63 = mul nsw i32 %62, 4
  %64 = sext i32 %63 to i64
  %65 = getelementptr inbounds i8, ptr %61, i64 %64
  %66 = load i8, ptr %65, align 1, !tbaa !56
  %67 = load ptr, ptr %5, align 8, !tbaa !55
  %68 = load i32, ptr %8, align 4, !tbaa !9
  %69 = sext i32 %68 to i64
  %70 = getelementptr inbounds i8, ptr %67, i64 %69
  store i8 %66, ptr %70, align 1, !tbaa !56
  br label %71

71:                                               ; preds = %60
  %72 = load i32, ptr %8, align 4, !tbaa !9
  %73 = add nsw i32 %72, 1
  store i32 %73, ptr %8, align 4, !tbaa !9
  br label %57, !llvm.loop !58

74:                                               ; preds = %57
  %75 = load ptr, ptr %5, align 8, !tbaa !55
  %76 = getelementptr inbounds i8, ptr %75, i64 8
  store i8 0, ptr %76, align 1, !tbaa !56
  call void @llvm.lifetime.end.p0(i64 64, ptr %10) #12
  call void @llvm.lifetime.end.p0(i64 16, ptr %9) #12
  call void @llvm.lifetime.end.p0(i64 4, ptr %8) #12
  call void @llvm.lifetime.end.p0(i64 4, ptr %7) #12
  ret void
}