; Function Attrs: nounwind uwtable
define void @ff_rdt_calc_response_and_checksum(ptr noundef %0, ptr noundef writeonly captures(none) %1, ptr noundef readonly captures(none) %2) local_unnamed_addr #0 {
  %4 = alloca [16 x i8], align 16
  %5 = alloca [64 x i8], align 16
  %6 = tail call i64 @strlen(ptr noundef nonnull dereferenceable(1) %2) #12
  %7 = trunc i64 %6 to i32
  call void @llvm.lifetime.start.p0(i64 16, ptr nonnull %4) #11
  call void @llvm.lifetime.start.p0(i64 64, ptr nonnull %5) #11
  call void @llvm.memcpy.p0.p0.i64(ptr noundef nonnull align 16 dereferenceable(64) %5, ptr noundef nonnull align 16 dereferenceable(64) @__const.ff_rdt_calc_response_and_checksum.buf, i64 64, i1 false)
  %8 = icmp eq i32 %7, 40
  %spec.store.select = tail call i32 @llvm.smin.i32(i32 %7, i32 56)
  %narrow = select i1 %8, i32 32, i32 %spec.store.select
  %.017 = sext i32 %narrow to i64
  %9 = getelementptr inbounds nuw i8, ptr %5, i64 8
  call void @llvm.memcpy.p0.p0.i64(ptr nonnull align 8 %9, ptr nonnull align 1 %2, i64 %.017, i1 false)
  br label %10

10:                                               ; preds = %3, %10
  %indvars.iv = phi i64 [ 0, %3 ], [ %indvars.iv.next, %10 ]
  %11 = getelementptr inbounds nuw [37 x i8], ptr @ff_rdt_calc_response_and_checksum.xor_table, i64 0, i64 %indvars.iv
  %12 = load i8, ptr %11, align 1, !tbaa !48
  %13 = add nuw nsw i64 %indvars.iv, 8
  %14 = getelementptr inbounds nuw [64 x i8], ptr %5, i64 0, i64 %13
  %15 = load i8, ptr %14, align 1, !tbaa !48
  %16 = xor i8 %15, %12
  store i8 %16, ptr %14, align 1, !tbaa !48
  %indvars.iv.next = add nuw nsw i64 %indvars.iv, 1
  %exitcond.not = icmp eq i64 %indvars.iv.next, 37
  br i1 %exitcond.not, label %17, label %10, !llvm.loop !49

17:                                               ; preds = %10
  call void @av_md5_sum(ptr noundef nonnull %4, ptr noundef nonnull %5, i64 noundef 64) #11
  %18 = call ptr @ff_data_to_hex(ptr noundef %0, ptr noundef nonnull %4, i32 noundef 16, i32 noundef 1) #11
  %19 = getelementptr inbounds nuw i8, ptr %0, i64 32
  call void @llvm.memcpy.p0.p0.i64(ptr noundef nonnull align 1 dereferenceable(9) %19, ptr noundef nonnull align 1 dereferenceable(9) @.str, i64 9, i1 false) #11
  br label %20

20:                                               ; preds = %17, %20
  %indvars.iv22 = phi i64 [ 0, %17 ], [ %indvars.iv.next23, %20 ]
  %21 = shl nuw nsw i64 %indvars.iv22, 2
  %22 = getelementptr inbounds nuw i8, ptr %0, i64 %21
  %23 = load i8, ptr %22, align 1, !tbaa !48
  %24 = getelementptr inbounds nuw i8, ptr %1, i64 %indvars.iv22
  store i8 %23, ptr %24, align 1, !tbaa !48
  %indvars.iv.next23 = add nuw nsw i64 %indvars.iv22, 1
  %exitcond25.not = icmp eq i64 %indvars.iv.next23, 8
  br i1 %exitcond25.not, label %25, label %20, !llvm.loop !50

25:                                               ; preds = %20
  %26 = getelementptr inbounds nuw i8, ptr %1, i64 8
  store i8 0, ptr %26, align 1, !tbaa !48
  call void @llvm.lifetime.end.p0(i64 64, ptr nonnull %5) #11
  call void @llvm.lifetime.end.p0(i64 16, ptr nonnull %4) #11
  ret void
}